; Function Attrs: inlinehint mustprogress nounwind uwtable
define internal void @_ZN12_GLOBAL__N_112gzip_ostreamD0Ev(ptr noundef nonnull align 8 dereferenceable(120) initializes((0, 16), (120, 128)) %0) unnamed_addr #12 align 2 personality ptr @__gxx_personality_v0 {
  store ptr getelementptr inbounds nuw inrange(-24, 16) (i8, ptr @_ZTVN12_GLOBAL__N_112gzip_ostreamE, i64 24), ptr %0, align 8, !tbaa !28
  %2 = getelementptr inbounds nuw i8, ptr %0, i64 120
  store ptr getelementptr inbounds nuw inrange(-24, 16) (i8, ptr @_ZTVN12_GLOBAL__N_112gzip_ostreamE, i64 64), ptr %2, align 8, !tbaa !28
  %3 = getelementptr inbounds nuw i8, ptr %0, i64 8
  store ptr getelementptr inbounds nuw inrange(-16, 112) (i8, ptr @_ZTVN12_GLOBAL__N_112gzip_ostream14gzip_streambufE, i64 16), ptr %3, align 8, !tbaa !28
  %4 = invoke noundef i32 @_ZN12_GLOBAL__N_112gzip_ostream14gzip_streambuf4syncEv(ptr noundef nonnull align 8 dereferenceable(112) %3)
          to label %5 unwind label %19

5:                                                ; preds = %1
  %6 = getelementptr inbounds nuw i8, ptr %0, i64 112
  %7 = load ptr, ptr %6, align 8, !tbaa !204
  %8 = invoke i32 @gzclose(ptr noundef %7)
          to label %9 unwind label %19

9:                                                ; preds = %5
  store ptr getelementptr inbounds nuw inrange(-16, 112) (i8, ptr @_ZTVNSt7__cxx1115basic_stringbufIcSt11char_traitsIcESaIcEEE, i64 16), ptr %3, align 8, !tbaa !28
  %10 = getelementptr inbounds nuw i8, ptr %0, i64 80
  %11 = load ptr, ptr %10, align 8, !tbaa !19
  %12 = getelementptr inbounds nuw i8, ptr %0, i64 96
  %13 = icmp eq ptr %11, %12
  br i1 %13, label %_ZNKSt7__cxx1112basic_stringIcSt11char_traitsIcESaIcEE11_M_is_localEv.exit.thread.i.i.i.i.i.i, label %_ZNKSt7__cxx1112basic_stringIcSt11char_traitsIcESaIcEE11_M_is_localEv.exit.i.i.i.i.i.i

_ZNKSt7__cxx1112basic_stringIcSt11char_traitsIcESaIcEE11_M_is_localEv.exit.thread.i.i.i.i.i.i: ; preds = %9
  %14 = getelementptr inbounds nuw i8, ptr %0, i64 88
  %15 = load i64, ptr %14, align 8, !tbaa !23
  %16 = icmp ult i64 %15, 16
  tail call void @llvm.assume(i1 %16)
  br label %_ZN12_GLOBAL__N_112gzip_ostreamD1Ev.exit

_ZNKSt7__cxx1112basic_stringIcSt11char_traitsIcESaIcEE11_M_is_localEv.exit.i.i.i.i.i.i: ; preds = %9
  %17 = load i64, ptr %12, align 8, !tbaa !24
  %18 = add i64 %17, 1
  tail call void @_ZdlPvm(ptr noundef %11, i64 noundef %18) #38
  br label %_ZN12_GLOBAL__N_112gzip_ostreamD1Ev.exit

19:                                               ; preds = %5, %1
  %20 = landingpad { ptr, i32 }
          catch ptr null
  %21 = extractvalue { ptr, i32 } %20, 0
  tail call void @__clang_call_terminate(ptr %21) #37
  unreachable

_ZN12_GLOBAL__N_112gzip_ostreamD1Ev.exit:         ; preds = %_ZNKSt7__cxx1112basic_stringIcSt11char_traitsIcESaIcEE11_M_is_localEv.exit.thread.i.i.i.i.i.i, %_ZNKSt7__cxx1112basic_stringIcSt11char_traitsIcESaIcEE11_M_is_localEv.exit.i.i.i.i.i.i
  store ptr getelementptr inbounds nuw inrange(-16, 112) (i8, ptr @_ZTVSt15basic_streambufIcSt11char_traitsIcEE, i64 16), ptr %3, align 8, !tbaa !28
  %22 = getelementptr inbounds nuw i8, ptr %0, i64 64
  tail call void @_ZNSt6localeD1Ev(ptr noundef nonnull align 8 dereferenceable(8) %22) #39
  tail call void @_ZNSt8ios_baseD2Ev(ptr noundef nonnull align 8 dereferenceable(264) %2) #39
  tail call void @_ZdlPvm(ptr noundef nonnull %0, i64 noundef 384) #38
  ret void
}